target datalayout = "e-m:e-p270:32:32-p271:32:32-p272:64:64-i64:64-i128:128-f80:128-n8:16:32:64-S128"
target triple = "x86_64-pc-linux-gnu"

; Function Attrs: mustprogress nounwind uwtable
define dso_local noundef zeroext i1 @_ZN4llvm3X864isOREj(i32 noundef %0) #0 {
  %2 = alloca i1, align 1
  %3 = alloca i32, align 4
  store i32 %0, ptr %3, align 4
  %4 = load i32, ptr %3, align 4
  switch i32 %4, label %6 [
    i32 2852, label %5
    i32 2853, label %5
    i32 2854, label %5
    i32 2855, label %5
    i32 2856, label %5
    i32 2857, label %5
    i32 2858, label %5
    i32 2859, label %5
    i32 2860, label %5
    i32 2861, label %5
    i32 2862, label %5
    i32 2863, label %5
    i32 2864, label %5
    i32 2865, label %5
    i32 2866, label %5
    i32 2867, label %5
    i32 2868, label %5
    i32 2869, label %5
    i32 2870, label %5
    i32 2871, label %5
    i32 2872, label %5
    i32 2873, label %5
    i32 2874, label %5
    i32 2875, label %5
    i32 2876, label %5
    i32 2877, label %5
    i32 2878, label %5
    i32 2879, label %5
    i32 2880, label %5
    i32 2881, label %5
    i32 2882, label %5
    i32 2883, label %5
    i32 2884, label %5
    i32 2885, label %5
    i32 2886, label %5
    i32 2887, label %5
    i32 2888, label %5
    i32 2889, label %5
    i32 2890, label %5
    i32 2891, label %5
    i32 2892, label %5
    i32 2893, label %5
    i32 2894, label %5
    i32 2895, label %5
    i32 2897, label %5
    i32 2898, label %5
    i32 2899, label %5
    i32 2900, label %5
    i32 2901, label %5
    i32 2902, label %5
    i32 2903, label %5
    i32 2904, label %5
    i32 2905, label %5
    i32 2906, label %5
    i32 2907, label %5
    i32 2908, label %5
    i32 2909, label %5
    i32 2910, label %5
    i32 2911, label %5
    i32 2912, label %5
    i32 2913, label %5
    i32 2914, label %5
    i32 2915, label %5
    i32 2916, label %5
    i32 2917, label %5
    i32 2918, label %5
    i32 2919, label %5
    i32 2920, label %5
    i32 2921, label %5
    i32 2922, label %5
    i32 2923, label %5
    i32 2924, label %5
    i32 2925, label %5
    i32 2926, label %5
    i32 2927, label %5
    i32 2928, label %5
    i32 2929, label %5
    i32 2930, label %5
    i32 2931, label %5
    i32 2932, label %5
    i32 2933, label %5
    i32 2934, label %5
    i32 2935, label %5
    i32 2936, label %5
    i32 2937, label %5
    i32 2938, label %5
    i32 2939, label %5
    i32 2940, label %5
    i32 2941, label %5
    i32 2942, label %5
    i32 2943, label %5
    i32 2944, label %5
    i32 2945, label %5
    i32 2946, label %5
    i32 2947, label %5
    i32 2948, label %5
    i32 2949, label %5
    i32 2950, label %5
    i32 2951, label %5
    i32 2952, label %5
    i32 2953, label %5
    i32 2954, label %5
    i32 2955, label %5
    i32 2956, label %5
    i32 2957, label %5
    i32 2958, label %5
    i32 2959, label %5
    i32 2960, label %5
    i32 2961, label %5
    i32 2962, label %5
    i32 2963, label %5
    i32 2964, label %5
    i32 2965, label %5
    i32 2966, label %5
    i32 2967, label %5
    i32 2968, label %5
    i32 2969, label %5
    i32 2970, label %5
    i32 2971, label %5
    i32 2972, label %5
    i32 2973, label %5
    i32 2974, label %5
    i32 2975, label %5
    i32 2976, label %5
    i32 2977, label %5
    i32 2978, label %5
    i32 2979, label %5
    i32 2980, label %5
    i32 2981, label %5
    i32 2982, label %5
    i32 2983, label %5
    i32 2984, label %5
    i32 2985, label %5
    i32 2986, label %5
    i32 2987, label %5
    i32 2988, label %5
    i32 2989, label %5
    i32 2990, label %5
    i32 2991, label %5
    i32 2992, label %5
    i32 2993, label %5
    i32 2994, label %5
    i32 2995, label %5
    i32 2996, label %5
    i32 2997, label %5
    i32 2998, label %5
    i32 2999, label %5
    i32 3000, label %5
    i32 3001, label %5
    i32 3002, label %5
    i32 3003, label %5
    i32 3004, label %5
    i32 3005, label %5
    i32 3006, label %5
    i32 3007, label %5
    i32 3008, label %5
  ]

5:                                                ; preds = %1, %1, %1, %1, %1, %1, %1, %1, %1, %1, %1, %1, %1, %1, %1, %1, %1, %1, %1, %1, %1, %1, %1, %1, %1, %1, %1, %1, %1, %1, %1, %1, %1, %1, %1, %1, %1, %1, %1, %1, %1, %1, %1, %1, %1, %1, %1, %1, %1, %1, %1, %1, %1, %1, %1, %1, %1, %1, %1, %1, %1, %1, %1, %1, %1, %1, %1, %1, %1, %1, %1, %1, %1, %1, %1, %1, %1, %1, %1, %1, %1, %1, %1, %1, %1, %1, %1, %1, %1, %1, %1, %1, %1, %1, %1, %1, %1, %1, %1, %1, %1, %1, %1, %1, %1, %1, %1, %1, %1, %1, %1, %1, %1, %1, %1, %1, %1, %1, %1, %1, %1, %1, %1, %1, %1, %1, %1, %1, %1, %1, %1, %1, %1, %1, %1, %1, %1, %1, %1, %1, %1, %1, %1, %1, %1, %1, %1, %1, %1, %1, %1, %1, %1, %1, %1, %1
  store i1 true, ptr %2, align 1
  br label %7

6:                                                ; preds = %1
  store i1 false, ptr %2, align 1
  br label %7

7:                                                ; preds = %6, %5
  %8 = load i1, ptr %2, align 1
  ret i1 %8
}