; Function Attrs: mustprogress nofree norecurse nosync nounwind willreturn memory(none) uwtable
define dso_local noundef zeroext i1 @_ZN4llvm3X864isOREj(i32 noundef %0) local_unnamed_addr #0 {
  switch i32 %0, label %2 [
    i32 2852, label %3
    i32 2853, label %3
    i32 2854, label %3
    i32 2855, label %3
    i32 2856, label %3
    i32 2857, label %3
    i32 2858, label %3
    i32 2859, label %3
    i32 2860, label %3
    i32 2861, label %3
    i32 2862, label %3
    i32 2863, label %3
    i32 2864, label %3
    i32 2865, label %3
    i32 2866, label %3
    i32 2867, label %3
    i32 2868, label %3
    i32 2869, label %3
    i32 2870, label %3
    i32 2871, label %3
    i32 2872, label %3
    i32 2873, label %3
    i32 2874, label %3
    i32 2875, label %3
    i32 2876, label %3
    i32 2877, label %3
    i32 2878, label %3
    i32 2879, label %3
    i32 2880, label %3
    i32 2881, label %3
    i32 2882, label %3
    i32 2883, label %3
    i32 2884, label %3
    i32 2885, label %3
    i32 2886, label %3
    i32 2887, label %3
    i32 2888, label %3
    i32 2889, label %3
    i32 2890, label %3
    i32 2891, label %3
    i32 2892, label %3
    i32 2893, label %3
    i32 2894, label %3
    i32 2895, label %3
    i32 2897, label %3
    i32 2898, label %3
    i32 2899, label %3
    i32 2900, label %3
    i32 2901, label %3
    i32 2902, label %3
    i32 2903, label %3
    i32 2904, label %3
    i32 2905, label %3
    i32 2906, label %3
    i32 2907, label %3
    i32 2908, label %3
    i32 2909, label %3
    i32 2910, label %3
    i32 2911, label %3
    i32 2912, label %3
    i32 2913, label %3
    i32 2914, label %3
    i32 2915, label %3
    i32 2916, label %3
    i32 2917, label %3
    i32 2918, label %3
    i32 2919, label %3
    i32 2920, label %3
    i32 2921, label %3
    i32 2922, label %3
    i32 2923, label %3
    i32 2924, label %3
    i32 2925, label %3
    i32 2926, label %3
    i32 2927, label %3
    i32 2928, label %3
    i32 2929, label %3
    i32 2930, label %3
    i32 2931, label %3
    i32 2932, label %3
    i32 2933, label %3
    i32 2934, label %3
    i32 2935, label %3
    i32 2936, label %3
    i32 2937, label %3
    i32 2938, label %3
    i32 2939, label %3
    i32 2940, label %3
    i32 2941, label %3
    i32 2942, label %3
    i32 2943, label %3
    i32 2944, label %3
    i32 2945, label %3
    i32 2946, label %3
    i32 2947, label %3
    i32 2948, label %3
    i32 2949, label %3
    i32 2950, label %3
    i32 2951, label %3
    i32 2952, label %3
    i32 2953, label %3
    i32 2954, label %3
    i32 2955, label %3
    i32 2956, label %3
    i32 2957, label %3
    i32 2958, label %3
    i32 2959, label %3
    i32 2960, label %3
    i32 2961, label %3
    i32 2962, label %3
    i32 2963, label %3
    i32 2964, label %3
    i32 2965, label %3
    i32 2966, label %3
    i32 2967, label %3
    i32 2968, label %3
    i32 2969, label %3
    i32 2970, label %3
    i32 2971, label %3
    i32 2972, label %3
    i32 2973, label %3
    i32 2974, label %3
    i32 2975, label %3
    i32 2976, label %3
    i32 2977, label %3
    i32 2978, label %3
    i32 2979, label %3
    i32 2980, label %3
    i32 2981, label %3
    i32 2982, label %3
    i32 2983, label %3
    i32 2984, label %3
    i32 2985, label %3
    i32 2986, label %3
    i32 2987, label %3
    i32 2988, label %3
    i32 2989, label %3
    i32 2990, label %3
    i32 2991, label %3
    i32 2992, label %3
    i32 2993, label %3
    i32 2994, label %3
    i32 2995, label %3
    i32 2996, label %3
    i32 2997, label %3
    i32 2998, label %3
    i32 2999, label %3
    i32 3000, label %3
    i32 3001, label %3
    i32 3002, label %3
    i32 3003, label %3
    i32 3004, label %3
    i32 3005, label %3
    i32 3006, label %3
    i32 3007, label %3
    i32 3008, label %3
  ]

2:                                                ; preds = %1
  br label %3

3:                                                ; preds = %1, %1, %1, %1, %1, %1, %1, %1, %1, %1, %1, %1, %1, %1, %1, %1, %1, %1, %1, %1, %1, %1, %1, %1, %1, %1, %1, %1, %1, %1, %1, %1, %1, %1, %1, %1, %1, %1, %1, %1, %1, %1, %1, %1, %1, %1, %1, %1, %1, %1, %1, %1, %1, %1, %1, %1, %1, %1, %1, %1, %1, %1, %1, %1, %1, %1, %1, %1, %1, %1, %1, %1, %1, %1, %1, %1, %1, %1, %1, %1, %1, %1, %1, %1, %1, %1, %1, %1, %1, %1, %1, %1, %1, %1, %1, %1, %1, %1, %1, %1, %1, %1, %1, %1, %1, %1, %1, %1, %1, %1, %1, %1, %1, %1, %1, %1, %1, %1, %1, %1, %1, %1, %1, %1, %1, %1, %1, %1, %1, %1, %1, %1, %1, %1, %1, %1, %1, %1, %1, %1, %1, %1, %1, %1, %1, %1, %1, %1, %1, %1, %1, %1, %1, %1, %1, %1, %2
  %.0 = phi i1 [ false, %2 ], [ true, %1 ], [ true, %1 ], [ true, %1 ], [ true, %1 ], [ true, %1 ], [ true, %1 ], [ true, %1 ], [ true, %1 ], [ true, %1 ], [ true, %1 ], [ true, %1 ], [ true, %1 ], [ true, %1 ], [ true, %1 ], [ true, %1 ], [ true, %1 ], [ true, %1 ], [ true, %1 ], [ true, %1 ], [ true, %1 ], [ true, %1 ], [ true, %1 ], [ true, %1 ], [ true, %1 ], [ true, %1 ], [ true, %1 ], [ true, %1 ], [ true, %1 ], [ true, %1 ], [ true, %1 ], [ true, %1 ], [ true, %1 ], [ true, %1 ], [ true, %1 ], [ true, %1 ], [ true, %1 ], [ true, %1 ], [ true, %1 ], [ true, %1 ], [ true, %1 ], [ true, %1 ], [ true, %1 ], [ true, %1 ], [ true, %1 ], [ true, %1 ], [ true, %1 ], [ true, %1 ], [ true, %1 ], [ true, %1 ], [ true, %1 ], [ true, %1 ], [ true, %1 ], [ true, %1 ], [ true, %1 ], [ true, %1 ], [ true, %1 ], [ true, %1 ], [ true, %1 ], [ true, %1 ], [ true, %1 ], [ true, %1 ], [ true, %1 ], [ true, %1 ], [ true, %1 ], [ true, %1 ], [ true, %1 ], [ true, %1 ], [ true, %1 ], [ true, %1 ], [ true, %1 ], [ true, %1 ], [ true, %1 ], [ true, %1 ], [ true, %1 ], [ true, %1 ], [ true, %1 ], [ true, %1 ], [ true, %1 ], [ true, %1 ], [ true, %1 ], [ true, %1 ], [ true, %1 ], [ true, %1 ], [ true, %1 ], [ true, %1 ], [ true, %1 ], [ true, %1 ], [ true, %1 ], [ true, %1 ], [ true, %1 ], [ true, %1 ], [ true, %1 ], [ true, %1 ], [ true, %1 ], [ true, %1 ], [ true, %1 ], [ true, %1 ], [ true, %1 ], [ true, %1 ], [ true, %1 ], [ true, %1 ], [ true, %1 ], [ true, %1 ], [ true, %1 ], [ true, %1 ], [ true, %1 ], [ true, %1 ], [ true, %1 ], [ true, %1 ], [ true, %1 ], [ true, %1 ], [ true, %1 ], [ true, %1 ], [ true, %1 ], [ true, %1 ], [ true, %1 ], [ true, %1 ], [ true, %1 ], [ true, %1 ], [ true, %1 ], [ true, %1 ], [ true, %1 ], [ true, %1 ], [ true, %1 ], [ true, %1 ], [ true, %1 ], [ true, %1 ], [ true, %1 ], [ true, %1 ], [ true, %1 ], [ true, %1 ], [ true, %1 ], [ true, %1 ], [ true, %1 ], [ true, %1 ], [ true, %1 ], [ true, %1 ], [ true, %1 ], [ true, %1 ], [ true, %1 ], [ true, %1 ], [ true, %1 ], [ true, %1 ], [ true, %1 ], [ true, %1 ], [ true, %1 ], [ true, %1 ], [ true, %1 ], [ true, %1 ], [ true, %1 ], [ true, %1 ], [ true, %1 ], [ true, %1 ], [ true, %1 ], [ true, %1 ], [ true, %1 ]
  ret i1 %.0
}